; Function Attrs: nofree norecurse nosync nounwind memory(argmem: readwrite) uwtable
define internal void @Int8_To_Int24(ptr noundef writeonly captures(none) %0, i32 noundef %1, ptr noundef readonly captures(none) %2, i32 noundef %3, i32 noundef %4, ptr readnone captures(none) %5) #2 {
  %.not12 = icmp eq i32 %4, 0
  br i1 %.not12, label %._crit_edge, label %.lr.ph

.lr.ph:                                           ; preds = %6
  %7 = sext i32 %3 to i64
  %8 = mul nsw i32 %1, 3
  %9 = sext i32 %8 to i64
  br label %10

10:                                               ; preds = %.lr.ph, %10
  %.015 = phi ptr [ %0, %.lr.ph ], [ %16, %10 ]
  %.01014 = phi ptr [ %2, %.lr.ph ], [ %15, %10 ]
  %.01113 = phi i32 [ %4, %.lr.ph ], [ %11, %10 ]
  %11 = add i32 %.01113, -1
  store i8 0, ptr %.015, align 1, !tbaa !76
  %12 = getelementptr inbounds nuw i8, ptr %.015, i64 1
  store i8 0, ptr %12, align 1, !tbaa !76
  %13 = load i8, ptr %.01014, align 1, !tbaa !76
  %14 = getelementptr inbounds nuw i8, ptr %.015, i64 2
  store i8 %13, ptr %14, align 1, !tbaa !76
  %15 = getelementptr inbounds i8, ptr %.01014, i64 %7
  %16 = getelementptr inbounds i8, ptr %.015, i64 %9
  %.not = icmp eq i32 %11, 0
  br i1 %.not, label %._crit_edge, label %10, !llvm.loop !116

._crit_edge:                                      ; preds = %10, %6
  ret void
}